; Function Attrs: nounwind uwtable
define dso_local range(i32 -30, 1) i32 @archive_match_include_uname_w(ptr noundef %0, ptr noundef %1) local_unnamed_addr #0 {
  %3 = tail call i32 @__archive_check_magic(ptr noundef %0, i32 noundef 212668873, i32 noundef 1, ptr noundef nonnull @.str.28) #14
  %.not = icmp eq i32 %3, -30
  br i1 %.not, label %add_owner_name.exit, label %4

4:                                                ; preds = %2
  %5 = tail call noalias dereferenceable_or_null(120) ptr @calloc(i64 noundef 1, i64 noundef 120) #13
  %6 = icmp eq ptr %5, null
  br i1 %6, label %7, label %9

7:                                                ; preds = %4
  tail call void (ptr, i32, ptr, ...) @archive_set_error(ptr noundef %0, i32 noundef 12, ptr noundef nonnull @.str.32) #14
  %8 = getelementptr inbounds nuw i8, ptr %0, i64 4
  store i32 32768, ptr %8, align 4, !tbaa !27
  br label %add_owner_name.exit

9:                                                ; preds = %4
  %10 = getelementptr inbounds nuw i8, ptr %5, i64 16
  %11 = tail call i32 @archive_mstring_copy_wcs(ptr noundef nonnull %10, ptr noundef %1) #14
  %12 = getelementptr inbounds nuw i8, ptr %0, i64 432
  %13 = load ptr, ptr %12, align 8, !tbaa !29
  store ptr %5, ptr %13, align 8, !tbaa !49
  store ptr %5, ptr %12, align 8, !tbaa !29
  %14 = getelementptr inbounds nuw i8, ptr %0, i64 440
  %15 = load i32, ptr %14, align 8, !tbaa !34
  %16 = add nsw i32 %15, 1
  store i32 %16, ptr %14, align 8, !tbaa !34
  %17 = getelementptr inbounds nuw i8, ptr %0, i64 444
  %18 = load i32, ptr %17, align 4, !tbaa !87
  %19 = add nsw i32 %18, 1
  store i32 %19, ptr %17, align 4, !tbaa !87
  %20 = getelementptr inbounds nuw i8, ptr %0, i64 144
  %21 = load i32, ptr %20, align 8, !tbaa !48
  %22 = or i32 %21, 4
  store i32 %22, ptr %20, align 8, !tbaa !48
  br label %add_owner_name.exit

add_owner_name.exit:                              ; preds = %9, %7, %2
  %.1 = phi i32 [ -30, %2 ], [ -30, %7 ], [ 0, %9 ]
  ret i32 %.1
}